; Function Attrs: nounwind uwtable
define dso_local ptr @dictFetchValue(ptr noundef %0, ptr noundef %1) local_unnamed_addr #3 {
  %3 = getelementptr inbounds nuw i8, ptr %0, i64 24
  %4 = load i64, ptr %3, align 8, !tbaa !14
  %5 = getelementptr inbounds nuw i8, ptr %0, i64 32
  %6 = load i64, ptr %5, align 8, !tbaa !14
  %7 = sub i64 0, %6
  %8 = icmp eq i64 %4, %7
  br i1 %8, label %dictFind.exit.thread, label %9

9:                                                ; preds = %2
  %10 = getelementptr inbounds nuw i8, ptr %0, i64 48
  %11 = load i16, ptr %10, align 8
  %.not.i.i = icmp sgt i16 %11, -1
  %.pre.i.i = load ptr, ptr %0, align 8, !tbaa !16
  br i1 %.not.i.i, label %15, label %12

12:                                               ; preds = %9
  %13 = getelementptr inbounds nuw i8, ptr %.pre.i.i, i64 96
  %14 = load ptr, ptr %13, align 8, !tbaa !41
  %.not7.i.i = icmp eq ptr %14, null
  br i1 %.not7.i.i, label %15, label %dictFind.exit

15:                                               ; preds = %12, %9
  %16 = load ptr, ptr %.pre.i.i, align 8, !tbaa !42
  br label %dictFind.exit

dictFind.exit:                                    ; preds = %12, %15
  %.sink.i.i = phi ptr [ %16, %15 ], [ %14, %12 ]
  %17 = tail call i64 %.sink.i.i(ptr noundef %1) #25
  %18 = tail call ptr @dictFindByHash(ptr noundef nonnull %0, ptr noundef %1, i64 noundef %17)
  %.not = icmp eq ptr %18, null
  br i1 %.not, label %dictFind.exit.thread, label %19

19:                                               ; preds = %dictFind.exit
  %20 = ptrtoint ptr %18 to i64
  %21 = and i64 %20, 7
  %.not.i = icmp eq i64 %21, 0
  br i1 %.not.i, label %dictGetVal.exit, label %22, !prof !25

22:                                               ; preds = %19
  tail call void @_serverAssert(ptr noundef nonnull @.str.9, ptr noundef nonnull @.str.1, i32 noundef 927) #25
  tail call void @abort() #27
  unreachable

dictGetVal.exit:                                  ; preds = %19
  %23 = getelementptr inbounds nuw i8, ptr %18, i64 8
  %24 = load ptr, ptr %23, align 8, !tbaa !13
  br label %dictFind.exit.thread

dictFind.exit.thread:                             ; preds = %2, %dictFind.exit, %dictGetVal.exit
  %25 = phi ptr [ %24, %dictGetVal.exit ], [ null, %dictFind.exit ], [ null, %2 ]
  ret ptr %25
}